; Function Attrs: mustprogress uwtable
define void @_ZN2cv4gapi3oak14OAKRMatAdapter6accessENS_4RMat6AccessE(ptr dead_on_unwind noalias nonnull writable sret(%"class.cv::RMat::View") align 8 %0, ptr noundef nonnull align 8 dereferenceable(192) %1, i32 %2) unnamed_addr #0 align 2 personality ptr @__gxx_personality_v0 {
  %4 = alloca %"class.std::vector.14", align 8
  %5 = alloca %"class.std::function", align 8
  %6 = getelementptr inbounds i8, ptr %1, i64 48
  %7 = getelementptr inbounds i8, ptr %1, i64 112
  %8 = load ptr, ptr %7, align 8
  call void @llvm.memset.p0.i64(ptr noundef nonnull align 8 dereferenceable(24) %4, i8 0, i64 24, i1 false)
  call void @llvm.memset.p0.i64(ptr noundef nonnull align 8 dereferenceable(32) %5, i8 0, i64 32, i1 false)
  invoke void @_ZN2cv4RMat4ViewC1ERKNS_8GMatDescEPhRKSt6vectorImSaImEEOSt8functionIFvvEE(ptr noundef nonnull align 8 dereferenceable(112) %0, ptr noundef nonnull align 8 dereferenceable(48) %6, ptr noundef %8, ptr noundef nonnull align 8 dereferenceable(24) %4, ptr noundef nonnull align 8 dereferenceable(32) %5)
          to label %9 unwind label %19

9:                                                ; preds = %3
  %10 = getelementptr inbounds i8, ptr %5, i64 16
  %11 = load ptr, ptr %10, align 8
  %.not.i.i = icmp eq ptr %11, null
  br i1 %.not.i.i, label %_ZNSt8functionIFvvEED2Ev.exit, label %12

12:                                               ; preds = %9
  %13 = invoke noundef zeroext i1 %11(ptr noundef nonnull align 8 dereferenceable(16) %5, ptr noundef nonnull align 8 dereferenceable(16) %5, i32 noundef 3)
          to label %_ZNSt8functionIFvvEED2Ev.exit unwind label %14

14:                                               ; preds = %12
  %15 = landingpad { ptr, i32 }
          catch ptr null
  %16 = extractvalue { ptr, i32 } %15, 0
  call void @__clang_call_terminate(ptr %16) #15
  unreachable

_ZNSt8functionIFvvEED2Ev.exit:                    ; preds = %9, %12
  %17 = load ptr, ptr %4, align 8
  %.not.i.i.i = icmp eq ptr %17, null
  br i1 %.not.i.i.i, label %_ZNSt6vectorImSaImEED2Ev.exit, label %18

18:                                               ; preds = %_ZNSt8functionIFvvEED2Ev.exit
  call void @_ZdlPv(ptr noundef nonnull %17) #14
  br label %_ZNSt6vectorImSaImEED2Ev.exit

_ZNSt6vectorImSaImEED2Ev.exit:                    ; preds = %_ZNSt8functionIFvvEED2Ev.exit, %18
  ret void

19:                                               ; preds = %3
  %20 = landingpad { ptr, i32 }
          cleanup
  %21 = getelementptr inbounds i8, ptr %5, i64 16
  %22 = load ptr, ptr %21, align 8
  %.not.i.i2 = icmp eq ptr %22, null
  br i1 %.not.i.i2, label %_ZNSt8functionIFvvEED2Ev.exit3, label %23

23:                                               ; preds = %19
  %24 = invoke noundef zeroext i1 %22(ptr noundef nonnull align 8 dereferenceable(16) %5, ptr noundef nonnull align 8 dereferenceable(16) %5, i32 noundef 3)
          to label %_ZNSt8functionIFvvEED2Ev.exit3 unwind label %25

25:                                               ; preds = %23
  %26 = landingpad { ptr, i32 }
          catch ptr null
  %27 = extractvalue { ptr, i32 } %26, 0
  call void @__clang_call_terminate(ptr %27) #15
  unreachable

_ZNSt8functionIFvvEED2Ev.exit3:                   ; preds = %19, %23
  %28 = load ptr, ptr %4, align 8
  %.not.i.i.i4 = icmp eq ptr %28, null
  br i1 %.not.i.i.i4, label %_ZNSt6vectorImSaImEED2Ev.exit5, label %29

29:                                               ; preds = %_ZNSt8functionIFvvEED2Ev.exit3
  call void @_ZdlPv(ptr noundef nonnull %28) #14
  br label %_ZNSt6vectorImSaImEED2Ev.exit5

_ZNSt6vectorImSaImEED2Ev.exit5:                   ; preds = %_ZNSt8functionIFvvEED2Ev.exit3, %29
  resume { ptr, i32 } %20
}